; Function Attrs: nounwind uwtable
define internal void @cast_ptr_to_int(ptr nocapture readnone %0, ptr nocapture noundef %1, ptr noundef %2) #0 {
  %4 = getelementptr inbounds i8, ptr %1, i64 16
  %5 = load i16, ptr %4, align 8
  %6 = and i16 %5, 255
  %7 = icmp eq i16 %6, 14
  br i1 %7, label %8, label %.critedge

8:                                                ; preds = %3
  %9 = getelementptr inbounds i8, ptr %1, i64 24
  %10 = load i16, ptr %9, align 8
  %11 = and i16 %10, 255
  %.not = icmp eq i16 %11, 8
  br i1 %.not, label %.critedge, label %25

.critedge:                                        ; preds = %8, %3
  %12 = tail call noundef ptr @vmem_alloc(ptr noundef nonnull @expr_arena, i64 noundef 56) #10
  tail call void @llvm.memcpy.p0.p0.i64(ptr noundef nonnull align 8 dereferenceable(56) %12, ptr noundef nonnull align 8 dereferenceable(56) %1, i64 56, i1 false)
  %13 = load i16, ptr %4, align 8
  %14 = and i16 %13, -256
  %15 = or disjoint i16 %14, 9
  store i16 %15, ptr %4, align 8
  %16 = getelementptr inbounds i8, ptr %1, i64 24
  store i8 29, ptr %16, align 8
  %17 = load ptr, ptr @expr_arena, align 8
  %18 = ptrtoint ptr %12 to i64
  %19 = ptrtoint ptr %17 to i64
  %20 = sub i64 %18, %19
  %21 = sdiv exact i64 %20, 56
  %22 = trunc i64 %21 to i32
  %23 = getelementptr inbounds i8, ptr %1, i64 28
  store i32 %22, ptr %23, align 4
  %24 = getelementptr inbounds i8, ptr %1, i64 32
  store i32 0, ptr %24, align 8
  store ptr %2, ptr %1, align 8
  br label %59

25:                                               ; preds = %8
  %26 = getelementptr inbounds i8, ptr %1, i64 32
  %27 = load i64, ptr %26, align 8
  store ptr %2, ptr %1, align 8
  br label %28

28:                                               ; preds = %41, %25
  %.0.i = phi ptr [ %2, %25 ], [ %.1.i, %41 ]
  %29 = getelementptr inbounds i8, ptr %.0.i, i64 8
  %30 = load ptr, ptr %29, align 8
  %31 = load i32, ptr %30, align 8
  switch i32 %31, label %type_flatten.exit [
    i32 32, label %32
    i32 40, label %38
    i32 31, label %40
  ]

32:                                               ; preds = %28
  %33 = getelementptr inbounds i8, ptr %30, i64 56
  %34 = load ptr, ptr %33, align 8
  %35 = getelementptr inbounds i8, ptr %34, i64 96
  %36 = load ptr, ptr %35, align 8
  %37 = getelementptr inbounds i8, ptr %36, i64 8
  br label %41

38:                                               ; preds = %28
  %39 = getelementptr inbounds i8, ptr %30, i64 56
  br label %41

40:                                               ; preds = %28
  tail call void (ptr, ...) @error_exit(ptr noundef nonnull @.str.2, ptr noundef nonnull @.str.3, ptr noundef nonnull @__func__.type_flatten, ptr noundef nonnull @.str.10, i32 noundef 2984) #11
  unreachable

41:                                               ; preds = %38, %32
  %.1.in.i = phi ptr [ %39, %38 ], [ %37, %32 ]
  %.1.i = load ptr, ptr %.1.in.i, align 8
  br label %28

type_flatten.exit:                                ; preds = %28
  store i64 0, ptr %26, align 8
  %42 = add i32 %31, -3
  %43 = icmp ult i32 %42, 5
  br i1 %43, label %44, label %47

44:                                               ; preds = %type_flatten.exit
  %45 = icmp slt i64 %27, 0
  br i1 %45, label %46, label %54

46:                                               ; preds = %44
  store i64 -1, ptr %26, align 8
  br label %54

47:                                               ; preds = %type_flatten.exit
  switch i32 %31, label %54 [
    i32 8, label %48
    i32 9, label %50
    i32 10, label %52
  ]

48:                                               ; preds = %47
  %49 = and i64 %27, 255
  br label %54

50:                                               ; preds = %47
  %51 = and i64 %27, 65535
  br label %54

52:                                               ; preds = %47
  %53 = and i64 %27, 4294967295
  br label %54

54:                                               ; preds = %48, %50, %52, %47, %44, %46
  %.0 = phi i64 [ %27, %46 ], [ %27, %44 ], [ %27, %47 ], [ %53, %52 ], [ %51, %50 ], [ %49, %48 ]
  %55 = getelementptr inbounds i8, ptr %1, i64 40
  store i64 %.0, ptr %55, align 8
  %56 = getelementptr inbounds i8, ptr %1, i64 48
  store i32 %31, ptr %56, align 8
  %57 = and i16 %10, -512
  %58 = or disjoint i16 %57, 1
  store i16 %58, ptr %9, align 8
  br label %59

59:                                               ; preds = %.critedge, %54
  ret void
}